	.text
	.file	"builtin.c"
	.globl	print                   # -- Begin function print
	.p2align	4, 0x90
	.type	print,@function
print:                                  # @print
	.cfi_startproc
# %bb.0:
	pushq	%rbp
	.cfi_def_cfa_offset 16
	.cfi_offset %rbp, -16
	movq	%rsp, %rbp
	.cfi_def_cfa_register %rbp
	subq	$16, %rsp
	movq	%rdi, -8(%rbp)
	movq	-8(%rbp), %rsi
	movabsq	$.L.str, %rdi
	movb	$0, %al
	callq	printf
	addq	$16, %rsp
	popq	%rbp
	.cfi_def_cfa %rsp, 8
	retq
.Lfunc_end0:
	.size	print, .Lfunc_end0-print
	.cfi_endproc
                                        # -- End function
	.globl	println                 # -- Begin function println
	.p2align	4, 0x90
	.type	println,@function
println:                                # @println
	.cfi_startproc
# %bb.0:
	pushq	%rbp
	.cfi_def_cfa_offset 16
	.cfi_offset %rbp, -16
	movq	%rsp, %rbp
	.cfi_def_cfa_register %rbp
	subq	$16, %rsp
	movq	%rdi, -8(%rbp)
	movq	-8(%rbp), %rsi
	movabsq	$.L.str.1, %rdi
	movb	$0, %al
	callq	printf
	addq	$16, %rsp
	popq	%rbp
	.cfi_def_cfa %rsp, 8
	retq
.Lfunc_end1:
	.size	println, .Lfunc_end1-println
	.cfi_endproc
                                        # -- End function
	.globl	printInt                # -- Begin function printInt
	.p2align	4, 0x90
	.type	printInt,@function
printInt:                               # @printInt
	.cfi_startproc
# %bb.0:
	pushq	%rbp
	.cfi_def_cfa_offset 16
	.cfi_offset %rbp, -16
	movq	%rsp, %rbp
	.cfi_def_cfa_register %rbp
	subq	$16, %rsp
	movl	%edi, -4(%rbp)
	movl	-4(%rbp), %esi
	movabsq	$.L.str.2, %rdi
	movb	$0, %al
	callq	printf
	addq	$16, %rsp
	popq	%rbp
	.cfi_def_cfa %rsp, 8
	retq
.Lfunc_end2:
	.size	printInt, .Lfunc_end2-printInt
	.cfi_endproc
                                        # -- End function
	.globl	printlnInt              # -- Begin function printlnInt
	.p2align	4, 0x90
	.type	printlnInt,@function
printlnInt:                             # @printlnInt
	.cfi_startproc
# %bb.0:
	pushq	%rbp
	.cfi_def_cfa_offset 16
	.cfi_offset %rbp, -16
	movq	%rsp, %rbp
	.cfi_def_cfa_register %rbp
	subq	$16, %rsp
	movl	%edi, -4(%rbp)
	movl	-4(%rbp), %esi
	movabsq	$.L.str.3, %rdi
	movb	$0, %al
	callq	printf
	addq	$16, %rsp
	popq	%rbp
	.cfi_def_cfa %rsp, 8
	retq
.Lfunc_end3:
	.size	printlnInt, .Lfunc_end3-printlnInt
	.cfi_endproc
                                        # -- End function
	.globl	getString               # -- Begin function getString
	.p2align	4, 0x90
	.type	getString,@function
getString:                              # @getString
	.cfi_startproc
# %bb.0:
	pushq	%rbp
	.cfi_def_cfa_offset 16
	.cfi_offset %rbp, -16
	movq	%rsp, %rbp
	.cfi_def_cfa_register %rbp
	subq	$16, %rsp
	movl	$256, %edi              # imm = 0x100
	callq	malloc
	movq	%rax, -8(%rbp)
	movq	-8(%rbp), %rsi
	movabsq	$.L.str, %rdi
	movb	$0, %al
	callq	__isoc99_scanf
	movq	-8(%rbp), %rax
	addq	$16, %rsp
	popq	%rbp
	.cfi_def_cfa %rsp, 8
	retq
.Lfunc_end4:
	.size	getString, .Lfunc_end4-getString
	.cfi_endproc
                                        # -- End function
	.globl	getInt                  # -- Begin function getInt
	.p2align	4, 0x90
	.type	getInt,@function
getInt:                                 # @getInt
	.cfi_startproc
# %bb.0:
	pushq	%rbp
	.cfi_def_cfa_offset 16
	.cfi_offset %rbp, -16
	movq	%rsp, %rbp
	.cfi_def_cfa_register %rbp
	subq	$16, %rsp
	movabsq	$.L.str.2, %rdi
	leaq	-4(%rbp), %rsi
	movb	$0, %al
	callq	__isoc99_scanf
	movl	-4(%rbp), %eax
	addq	$16, %rsp
	popq	%rbp
	.cfi_def_cfa %rsp, 8
	retq
.Lfunc_end5:
	.size	getInt, .Lfunc_end5-getInt
	.cfi_endproc
                                        # -- End function
	.globl	toString                # -- Begin function toString
	.p2align	4, 0x90
	.type	toString,@function
toString:                               # @toString
	.cfi_startproc
# %bb.0:
	pushq	%rbp
	.cfi_def_cfa_offset 16
	.cfi_offset %rbp, -16
	movq	%rsp, %rbp
	.cfi_def_cfa_register %rbp
	subq	$16, %rsp
	movl	%edi, -4(%rbp)
	movl	$256, %edi              # imm = 0x100
	callq	malloc
	movq	%rax, -16(%rbp)
	movq	-16(%rbp), %rdi
	movl	-4(%rbp), %edx
	movabsq	$.L.str.2, %rsi
	movb	$0, %al
	callq	sprintf
	movq	-16(%rbp), %rax
	addq	$16, %rsp
	popq	%rbp
	.cfi_def_cfa %rsp, 8
	retq
.Lfunc_end6:
	.size	toString, .Lfunc_end6-toString
	.cfi_endproc
                                        # -- End function
	.globl	__str_length            # -- Begin function __str_length
	.p2align	4, 0x90
	.type	__str_length,@function
__str_length:                           # @__str_length
	.cfi_startproc
# %bb.0:
	pushq	%rbp
	.cfi_def_cfa_offset 16
	.cfi_offset %rbp, -16
	movq	%rsp, %rbp
	.cfi_def_cfa_register %rbp
	subq	$16, %rsp
	movq	%rdi, -8(%rbp)
	movq	-8(%rbp), %rdi
	callq	strlen
                                        # kill: def $eax killed $eax killed $rax
	addq	$16, %rsp
	popq	%rbp
	.cfi_def_cfa %rsp, 8
	retq
.Lfunc_end7:
	.size	__str_length, .Lfunc_end7-__str_length
	.cfi_endproc
                                        # -- End function
	.globl	__str_substring         # -- Begin function __str_substring
	.p2align	4, 0x90
	.type	__str_substring,@function
__str_substring:                        # @__str_substring
	.cfi_startproc
# %bb.0:
	pushq	%rbp
	.cfi_def_cfa_offset 16
	.cfi_offset %rbp, -16
	movq	%rsp, %rbp
	.cfi_def_cfa_register %rbp
	subq	$32, %rsp
	movq	%rdi, -24(%rbp)
	movl	%esi, -4(%rbp)
	movl	%edx, -8(%rbp)
	movl	-8(%rbp), %eax
	subl	-4(%rbp), %eax
	addl	$1, %eax
	movslq	%eax, %rdi
	callq	malloc
	movq	%rax, -16(%rbp)
	movq	-16(%rbp), %rdi
	movq	-24(%rbp), %rsi
	movslq	-4(%rbp), %rax
	addq	%rax, %rsi
	movl	-8(%rbp), %eax
	subl	-4(%rbp), %eax
	addl	$1, %eax
	movslq	%eax, %rdx
	callq	memcpy
	movq	-16(%rbp), %rax
	movl	-8(%rbp), %ecx
	subl	-4(%rbp), %ecx
	movslq	%ecx, %rcx
	movb	$0, (%rax,%rcx)
	movq	-16(%rbp), %rax
	addq	$32, %rsp
	popq	%rbp
	.cfi_def_cfa %rsp, 8
	retq
.Lfunc_end8:
	.size	__str_substring, .Lfunc_end8-__str_substring
	.cfi_endproc
                                        # -- End function
	.globl	__str_parseInt          # -- Begin function __str_parseInt
	.p2align	4, 0x90
	.type	__str_parseInt,@function
__str_parseInt:                         # @__str_parseInt
	.cfi_startproc
# %bb.0:
	pushq	%rbp
	.cfi_def_cfa_offset 16
	.cfi_offset %rbp, -16
	movq	%rsp, %rbp
	.cfi_def_cfa_register %rbp
	subq	$16, %rsp
	movq	%rdi, -16(%rbp)
	movq	-16(%rbp), %rdi
	movabsq	$.L.str.2, %rsi
	leaq	-4(%rbp), %rdx
	movb	$0, %al
	callq	__isoc99_sscanf
	movl	-4(%rbp), %eax
	addq	$16, %rsp
	popq	%rbp
	.cfi_def_cfa %rsp, 8
	retq
.Lfunc_end9:
	.size	__str_parseInt, .Lfunc_end9-__str_parseInt
	.cfi_endproc
                                        # -- End function
	.globl	__str_ord               # -- Begin function __str_ord
	.p2align	4, 0x90
	.type	__str_ord,@function
__str_ord:                              # @__str_ord
	.cfi_startproc
# %bb.0:
	pushq	%rbp
	.cfi_def_cfa_offset 16
	.cfi_offset %rbp, -16
	movq	%rsp, %rbp
	.cfi_def_cfa_register %rbp
	movq	%rdi, -16(%rbp)
	movl	%esi, -4(%rbp)
	movq	-16(%rbp), %rax
	movslq	-4(%rbp), %rcx
	movsbl	(%rax,%rcx), %eax
	popq	%rbp
	.cfi_def_cfa %rsp, 8
	retq
.Lfunc_end10:
	.size	__str_ord, .Lfunc_end10-__str_ord
	.cfi_endproc
                                        # -- End function
	.globl	__str_add               # -- Begin function __str_add
	.p2align	4, 0x90
	.type	__str_add,@function
__str_add:                              # @__str_add
	.cfi_startproc
# %bb.0:
	pushq	%rbp
	.cfi_def_cfa_offset 16
	.cfi_offset %rbp, -16
	movq	%rsp, %rbp
	.cfi_def_cfa_register %rbp
	pushq	%rbx
	subq	$24, %rsp
	.cfi_offset %rbx, -24
	movq	%rdi, -32(%rbp)
	movq	%rsi, -24(%rbp)
	movq	-32(%rbp), %rdi
	callq	strlen
	movq	%rax, %rbx
	movq	-24(%rbp), %rdi
	callq	strlen
	addq	%rax, %rbx
	addq	$1, %rbx
	movq	%rbx, %rdi
	callq	malloc
	movq	%rax, -16(%rbp)
	movq	-16(%rbp), %rdi
	movq	-32(%rbp), %rsi
	callq	strcpy
	movq	-16(%rbp), %rdi
	movq	-24(%rbp), %rsi
	callq	strcat
	movq	-16(%rbp), %rax
	addq	$24, %rsp
	popq	%rbx
	popq	%rbp
	.cfi_def_cfa %rsp, 8
	retq
.Lfunc_end11:
	.size	__str_add, .Lfunc_end11-__str_add
	.cfi_endproc
                                        # -- End function
	.globl	__str_slt               # -- Begin function __str_slt
	.p2align	4, 0x90
	.type	__str_slt,@function
__str_slt:                              # @__str_slt
	.cfi_startproc
# %bb.0:
	pushq	%rbp
	.cfi_def_cfa_offset 16
	.cfi_offset %rbp, -16
	movq	%rsp, %rbp
	.cfi_def_cfa_register %rbp
	subq	$16, %rsp
	movq	%rdi, -16(%rbp)
	movq	%rsi, -8(%rbp)
	movq	-16(%rbp), %rdi
	movq	-8(%rbp), %rsi
	callq	strcmp
	cmpl	$0, %eax
	setl	%al
	andb	$1, %al
	movzbl	%al, %eax
	movzbl	%al, %eax
	addq	$16, %rsp
	popq	%rbp
	.cfi_def_cfa %rsp, 8
	retq
.Lfunc_end12:
	.size	__str_slt, .Lfunc_end12-__str_slt
	.cfi_endproc
                                        # -- End function
	.globl	__str_sle               # -- Begin function __str_sle
	.p2align	4, 0x90
	.type	__str_sle,@function
__str_sle:                              # @__str_sle
	.cfi_startproc
# %bb.0:
	pushq	%rbp
	.cfi_def_cfa_offset 16
	.cfi_offset %rbp, -16
	movq	%rsp, %rbp
	.cfi_def_cfa_register %rbp
	subq	$16, %rsp
	movq	%rdi, -16(%rbp)
	movq	%rsi, -8(%rbp)
	movq	-16(%rbp), %rdi
	movq	-8(%rbp), %rsi
	callq	strcmp
	cmpl	$0, %eax
	setle	%al
	andb	$1, %al
	movzbl	%al, %eax
	movzbl	%al, %eax
	addq	$16, %rsp
	popq	%rbp
	.cfi_def_cfa %rsp, 8
	retq
.Lfunc_end13:
	.size	__str_sle, .Lfunc_end13-__str_sle
	.cfi_endproc
                                        # -- End function
	.globl	__str_sgt               # -- Begin function __str_sgt
	.p2align	4, 0x90
	.type	__str_sgt,@function
__str_sgt:                              # @__str_sgt
	.cfi_startproc
# %bb.0:
	pushq	%rbp
	.cfi_def_cfa_offset 16
	.cfi_offset %rbp, -16
	movq	%rsp, %rbp
	.cfi_def_cfa_register %rbp
	subq	$16, %rsp
	movq	%rdi, -16(%rbp)
	movq	%rsi, -8(%rbp)
	movq	-16(%rbp), %rdi
	movq	-8(%rbp), %rsi
	callq	strcmp
	cmpl	$0, %eax
	setg	%al
	andb	$1, %al
	movzbl	%al, %eax
	movzbl	%al, %eax
	addq	$16, %rsp
	popq	%rbp
	.cfi_def_cfa %rsp, 8
	retq
.Lfunc_end14:
	.size	__str_sgt, .Lfunc_end14-__str_sgt
	.cfi_endproc
                                        # -- End function
	.globl	__str_sge               # -- Begin function __str_sge
	.p2align	4, 0x90
	.type	__str_sge,@function
__str_sge:                              # @__str_sge
	.cfi_startproc
# %bb.0:
	pushq	%rbp
	.cfi_def_cfa_offset 16
	.cfi_offset %rbp, -16
	movq	%rsp, %rbp
	.cfi_def_cfa_register %rbp
	subq	$16, %rsp
	movq	%rdi, -16(%rbp)
	movq	%rsi, -8(%rbp)
	movq	-16(%rbp), %rdi
	movq	-8(%rbp), %rsi
	callq	strcmp
	cmpl	$0, %eax
	setge	%al
	andb	$1, %al
	movzbl	%al, %eax
	movzbl	%al, %eax
	addq	$16, %rsp
	popq	%rbp
	.cfi_def_cfa %rsp, 8
	retq
.Lfunc_end15:
	.size	__str_sge, .Lfunc_end15-__str_sge
	.cfi_endproc
                                        # -- End function
	.globl	__str_eq                # -- Begin function __str_eq
	.p2align	4, 0x90
	.type	__str_eq,@function
__str_eq:                               # @__str_eq
	.cfi_startproc
# %bb.0:
	pushq	%rbp
	.cfi_def_cfa_offset 16
	.cfi_offset %rbp, -16
	movq	%rsp, %rbp
	.cfi_def_cfa_register %rbp
	subq	$16, %rsp
	movq	%rdi, -16(%rbp)
	movq	%rsi, -8(%rbp)
	movq	-16(%rbp), %rdi
	movq	-8(%rbp), %rsi
	callq	strcmp
	cmpl	$0, %eax
	sete	%al
	andb	$1, %al
	movzbl	%al, %eax
	movzbl	%al, %eax
	addq	$16, %rsp
	popq	%rbp
	.cfi_def_cfa %rsp, 8
	retq
.Lfunc_end16:
	.size	__str_eq, .Lfunc_end16-__str_eq
	.cfi_endproc
                                        # -- End function
	.globl	__str_ne                # -- Begin function __str_ne
	.p2align	4, 0x90
	.type	__str_ne,@function
__str_ne:                               # @__str_ne
	.cfi_startproc
# %bb.0:
	pushq	%rbp
	.cfi_def_cfa_offset 16
	.cfi_offset %rbp, -16
	movq	%rsp, %rbp
	.cfi_def_cfa_register %rbp
	subq	$16, %rsp
	movq	%rdi, -16(%rbp)
	movq	%rsi, -8(%rbp)
	movq	-16(%rbp), %rdi
	movq	-8(%rbp), %rsi
	callq	strcmp
	cmpl	$0, %eax
	setne	%al
	andb	$1, %al
	movzbl	%al, %eax
	movzbl	%al, %eax
	addq	$16, %rsp
	popq	%rbp
	.cfi_def_cfa %rsp, 8
	retq
.Lfunc_end17:
	.size	__str_ne, .Lfunc_end17-__str_ne
	.cfi_endproc
                                        # -- End function
	.type	.L.str,@object          # @.str
	.section	.rodata.str1.1,"aMS",@progbits,1
.L.str:
	.asciz	"%s"
	.size	.L.str, 3

	.type	.L.str.1,@object        # @.str.1
.L.str.1:
	.asciz	"%s\n"
	.size	.L.str.1, 4

	.type	.L.str.2,@object        # @.str.2
.L.str.2:
	.asciz	"%d"
	.size	.L.str.2, 3

	.type	.L.str.3,@object        # @.str.3
.L.str.3:
	.asciz	"%d\n"
	.size	.L.str.3, 4

	.ident	"clang version 10.0.0-4ubuntu1 "
	.section	".note.GNU-stack","",@progbits
